(dp0
Vengine
p1
S'pdflatex'
p2
sVpackages
p3
c__builtin__
set
p4
((lp5
tp6
Rp7
sVfiles_with_guttermarks
p8
g4
((lp9
V/Users/pmueller/develop/sinelabore/statemachine generator/Cadifra CodeGen/distribution_folder/sinelaboreRT3.7.1/examples/microwave_handbook_builtin_editor/./main.c
p10
aS'main.c'
p11
atp12
Rp13
sVsynctex
p14
I01
s.